; Function Attrs: mustprogress uwtable
define noundef ptr @_ZN6icu_7510UnicodeSet10createFromERKNS_13UnicodeStringE(ptr noundef nonnull align 8 dereferenceable(64) %s) local_unnamed_addr #1 align 2 personality ptr @__gxx_personality_v0 {
entry:
  %call = tail call noundef ptr @_ZN6icu_757UMemorynwEm(i64 noundef 200) #22
  %new.isnull = icmp eq ptr %call, null
  br i1 %new.isnull, label %if.end, label %new.notnull

new.notnull:                                      ; preds = %entry
  invoke void @_ZN6icu_7510UnicodeSetC1Ev(ptr noundef nonnull align 8 dereferenceable(200) %call)
          to label %if.then unwind label %lpad

if.then:                                          ; preds = %new.notnull
  %call1 = tail call noundef nonnull align 8 dereferenceable(200) ptr @_ZN6icu_7510UnicodeSet3addERKNS_13UnicodeStringE(ptr noundef nonnull align 8 dereferenceable(200) %call, ptr noundef nonnull align 8 dereferenceable(64) %s)
  br label %if.end

lpad:                                             ; preds = %new.notnull
  %0 = landingpad { ptr, i32 }
          cleanup
  tail call void @_ZN6icu_757UMemorydlEPv(ptr noundef nonnull %call) #22
  resume { ptr, i32 } %0

if.end:                                           ; preds = %entry, %if.then
  ret ptr %call
}